; Function Attrs: nounwind uwtable
define internal fastcc zeroext i1 @IndexSupportsBackwardScan(i32 noundef %0) unnamed_addr #0 {
  %2 = zext i32 %0 to i64
  %3 = tail call ptr @SearchSysCache1(i32 noundef 57, i64 noundef %2) #6
  %.not = icmp eq ptr %3, null
  br i1 %.not, label %4, label %7

4:                                                ; preds = %1
  %5 = tail call zeroext i1 @errstart_cold(i32 noundef 21, ptr noundef null) #7
  tail call void @llvm.assume(i1 %5)
  %6 = tail call i32 (ptr, ...) @errmsg_internal(ptr noundef nonnull @.str.2, i32 noundef %0) #6
  tail call void @errfinish(ptr noundef nonnull @.str.1, i32 noundef 612, ptr noundef nonnull @__func__.IndexSupportsBackwardScan) #6
  unreachable

7:                                                ; preds = %1
  %8 = getelementptr i8, ptr %3, i64 16
  %.val = load ptr, ptr %8, align 8
  %9 = getelementptr inbounds nuw i8, ptr %.val, i64 22
  %10 = load i8, ptr %9, align 2
  %11 = zext i8 %10 to i64
  %12 = getelementptr inbounds nuw i8, ptr %.val, i64 %11
  %13 = getelementptr inbounds nuw i8, ptr %12, i64 84
  %14 = load i32, ptr %13, align 4
  %15 = tail call ptr @GetIndexAmRoutineByAmId(i32 noundef %14, i1 noundef zeroext false) #6
  %16 = getelementptr inbounds nuw i8, ptr %15, i64 12
  %17 = load i8, ptr %16, align 4, !range !4, !noundef !5
  %18 = trunc nuw i8 %17 to i1
  tail call void @pfree(ptr noundef %15) #6
  tail call void @ReleaseSysCache(ptr noundef nonnull %3) #6
  ret i1 %18
}